target datalayout = "e-m:e-p270:32:32-p271:32:32-p272:64:64-i64:64-i128:128-f80:128-n8:16:32:64-S128"
target triple = "x86_64-pc-linux-gnu"

%struct.ec_point_st = type { ptr, i32, ptr, ptr, ptr, i32 }

; Function Attrs: nounwind uwtable
define void @ossl_ec_GFp_simple_point_clear_finish(ptr noundef %0) #0 {
  %2 = alloca ptr, align 8
  store ptr %0, ptr %2, align 8, !tbaa !30
  %3 = load ptr, ptr %2, align 8, !tbaa !30
  %4 = getelementptr inbounds nuw %struct.ec_point_st, ptr %3, i32 0, i32 2
  %5 = load ptr, ptr %4, align 8, !tbaa !31
  call void @BN_clear_free(ptr noundef %5)
  %6 = load ptr, ptr %2, align 8, !tbaa !30
  %7 = getelementptr inbounds nuw %struct.ec_point_st, ptr %6, i32 0, i32 3
  %8 = load ptr, ptr %7, align 8, !tbaa !33
  call void @BN_clear_free(ptr noundef %8)
  %9 = load ptr, ptr %2, align 8, !tbaa !30
  %10 = getelementptr inbounds nuw %struct.ec_point_st, ptr %9, i32 0, i32 4
  %11 = load ptr, ptr %10, align 8, !tbaa !34
  call void @BN_clear_free(ptr noundef %11)
  %12 = load ptr, ptr %2, align 8, !tbaa !30
  %13 = getelementptr inbounds nuw %struct.ec_point_st, ptr %12, i32 0, i32 5
  store i32 0, ptr %13, align 8, !tbaa !35
  ret void
}